target datalayout = "e-m:e-p270:32:32-p271:32:32-p272:64:64-i64:64-i128:128-f80:128-n8:16:32:64-S128"
target triple = "x86_64-pc-linux-gnu"

%struct.table_t = type { i64, i64, i64, ptr }
%struct.obj_t = type { %struct.H5O_token_t, ptr, i8, i8 }
%struct.H5O_token_t = type { [16 x i8] }

; Function Attrs: nounwind uwtable
define void @free_table(ptr noundef %0) #0 {
  %2 = alloca ptr, align 8
  %3 = alloca i32, align 4
  store ptr %0, ptr %2, align 8
  store i32 0, ptr %3, align 4
  br label %4

4:                                                ; preds = %31, %1
  %5 = load i32, ptr %3, align 4
  %6 = zext i32 %5 to i64
  %7 = load ptr, ptr %2, align 8
  %8 = getelementptr inbounds %struct.table_t, ptr %7, i32 0, i32 2
  %9 = load i64, ptr %8, align 8
  %10 = icmp ult i64 %6, %9
  br i1 %10, label %11, label %34

11:                                               ; preds = %4
  %12 = load ptr, ptr %2, align 8
  %13 = getelementptr inbounds %struct.table_t, ptr %12, i32 0, i32 3
  %14 = load ptr, ptr %13, align 8
  %15 = load i32, ptr %3, align 4
  %16 = zext i32 %15 to i64
  %17 = getelementptr inbounds %struct.obj_t, ptr %14, i64 %16
  %18 = getelementptr inbounds %struct.obj_t, ptr %17, i32 0, i32 1
  %19 = load ptr, ptr %18, align 8
  %20 = icmp ne ptr %19, null
  br i1 %20, label %21, label %30

21:                                               ; preds = %11
  %22 = load ptr, ptr %2, align 8
  %23 = getelementptr inbounds %struct.table_t, ptr %22, i32 0, i32 3
  %24 = load ptr, ptr %23, align 8
  %25 = load i32, ptr %3, align 4
  %26 = zext i32 %25 to i64
  %27 = getelementptr inbounds %struct.obj_t, ptr %24, i64 %26
  %28 = getelementptr inbounds %struct.obj_t, ptr %27, i32 0, i32 1
  %29 = load ptr, ptr %28, align 8
  call void @free(ptr noundef %29) #12
  br label %30

30:                                               ; preds = %21, %11
  br label %31

31:                                               ; preds = %30
  %32 = load i32, ptr %3, align 4
  %33 = add i32 %32, 1
  store i32 %33, ptr %3, align 4
  br label %4

34:                                               ; preds = %4
  %35 = load ptr, ptr %2, align 8
  %36 = getelementptr inbounds %struct.table_t, ptr %35, i32 0, i32 3
  %37 = load ptr, ptr %36, align 8
  call void @free(ptr noundef %37) #12
  %38 = load ptr, ptr %2, align 8
  call void @free(ptr noundef %38) #12
  ret void
}