; Function Attrs: nounwind uwtable
define void @free_table(ptr noundef captures(none) %0) local_unnamed_addr #4 {
  %2 = getelementptr inbounds nuw i8, ptr %0, i64 16
  %3 = load i64, ptr %2, align 8
  %.not11 = icmp eq i64 %3, 0
  br i1 %.not11, label %._crit_edge, label %.lr.ph

.lr.ph:                                           ; preds = %1
  %4 = getelementptr inbounds nuw i8, ptr %0, i64 24
  br label %5

5:                                                ; preds = %.lr.ph, %12
  %6 = phi i64 [ %3, %.lr.ph ], [ %13, %12 ]
  %7 = phi i64 [ 0, %.lr.ph ], [ %15, %12 ]
  %.010 = phi i32 [ 0, %.lr.ph ], [ %14, %12 ]
  %8 = load ptr, ptr %4, align 8
  %9 = getelementptr inbounds nuw %struct.obj_t, ptr %8, i64 %7, i32 1
  %10 = load ptr, ptr %9, align 8
  %.not = icmp eq ptr %10, null
  br i1 %.not, label %12, label %11

11:                                               ; preds = %5
  tail call void @free(ptr noundef nonnull %10) #23
  %.pre = load i64, ptr %2, align 8
  br label %12

12:                                               ; preds = %5, %11
  %13 = phi i64 [ %6, %5 ], [ %.pre, %11 ]
  %14 = add i32 %.010, 1
  %15 = zext i32 %14 to i64
  %16 = icmp ugt i64 %13, %15
  br i1 %16, label %5, label %._crit_edge

._crit_edge:                                      ; preds = %12, %1
  %17 = getelementptr inbounds nuw i8, ptr %0, i64 24
  %18 = load ptr, ptr %17, align 8
  tail call void @free(ptr noundef %18) #23
  tail call void @free(ptr noundef nonnull %0) #23
  ret void
}